###############################################################################
#
# IAR ELF Linker V8.30.1.114/W32 for ARM                  19/Jul/2019  10:29:38
# Copyright 2007-2018 IAR Systems AB.
#
#    Output file  =  
#        C:\03-githubFiles\HC32F460_FreeRTOS\HC32F460Temp_FreeRTOS\Debug\Exe\HC32F460_Temp_IAR.out
#    Map file     =  
#        C:\03-githubFiles\HC32F460_FreeRTOS\HC32F460Temp_FreeRTOS\Debug\List\HC32F460_Temp_IAR.map
#    Command line =  
#        -f C:\Users\User\AppData\Local\Temp\EW8A6D.tmp
#        (C:\03-githubFiles\HC32F460_FreeRTOS\HC32F460Temp_FreeRTOS\Debug\Obj\cmsis_os.o
#        C:\03-githubFiles\HC32F460_FreeRTOS\HC32F460Temp_FreeRTOS\Debug\Obj\croutine.o
#        C:\03-githubFiles\HC32F460_FreeRTOS\HC32F460Temp_FreeRTOS\Debug\Obj\data_sound_441_i2s.o
#        C:\03-githubFiles\HC32F460_FreeRTOS\HC32F460Temp_FreeRTOS\Debug\Obj\data_sound_8k_i2s.o
#        C:\03-githubFiles\HC32F460_FreeRTOS\HC32F460Temp_FreeRTOS\Debug\Obj\event_groups.o
#        C:\03-githubFiles\HC32F460_FreeRTOS\HC32F460Temp_FreeRTOS\Debug\Obj\hc32f46x_adc.o
#        C:\03-githubFiles\HC32F460_FreeRTOS\HC32F460Temp_FreeRTOS\Debug\Obj\hc32f46x_aes.o
#        C:\03-githubFiles\HC32F460_FreeRTOS\HC32F460Temp_FreeRTOS\Debug\Obj\hc32f46x_can.o
#        C:\03-githubFiles\HC32F460_FreeRTOS\HC32F460Temp_FreeRTOS\Debug\Obj\hc32f46x_clk.o
#        C:\03-githubFiles\HC32F460_FreeRTOS\HC32F460Temp_FreeRTOS\Debug\Obj\hc32f46x_cmp.o
#        C:\03-githubFiles\HC32F460_FreeRTOS\HC32F460Temp_FreeRTOS\Debug\Obj\hc32f46x_dcu.o
#        C:\03-githubFiles\HC32F460_FreeRTOS\HC32F460Temp_FreeRTOS\Debug\Obj\hc32f46x_dmac.o
#        C:\03-githubFiles\HC32F460_FreeRTOS\HC32F460Temp_FreeRTOS\Debug\Obj\hc32f46x_efm.o
#        C:\03-githubFiles\HC32F460_FreeRTOS\HC32F460Temp_FreeRTOS\Debug\Obj\hc32f46x_emb.o
#        C:\03-githubFiles\HC32F460_FreeRTOS\HC32F460Temp_FreeRTOS\Debug\Obj\hc32f46x_event_port.o
#        C:\03-githubFiles\HC32F460_FreeRTOS\HC32F460Temp_FreeRTOS\Debug\Obj\hc32f46x_exint_nmi_swi.o
#        C:\03-githubFiles\HC32F460_FreeRTOS\HC32F460Temp_FreeRTOS\Debug\Obj\hc32f46x_gpio.o
#        C:\03-githubFiles\HC32F460_FreeRTOS\HC32F460Temp_FreeRTOS\Debug\Obj\hc32f46x_hash.o
#        C:\03-githubFiles\HC32F460_FreeRTOS\HC32F460Temp_FreeRTOS\Debug\Obj\hc32f46x_i2c.o
#        C:\03-githubFiles\HC32F460_FreeRTOS\HC32F460Temp_FreeRTOS\Debug\Obj\hc32f46x_i2s.o
#        C:\03-githubFiles\HC32F460_FreeRTOS\HC32F460Temp_FreeRTOS\Debug\Obj\hc32f46x_icg.o
#        C:\03-githubFiles\HC32F460_FreeRTOS\HC32F460Temp_FreeRTOS\Debug\Obj\hc32f46x_interrupts.o
#        C:\03-githubFiles\HC32F460_FreeRTOS\HC32F460Temp_FreeRTOS\Debug\Obj\hc32f46x_keyscan.o
#        C:\03-githubFiles\HC32F460_FreeRTOS\HC32F460Temp_FreeRTOS\Debug\Obj\hc32f46x_mpu.o
#        C:\03-githubFiles\HC32F460_FreeRTOS\HC32F460Temp_FreeRTOS\Debug\Obj\hc32f46x_ots.o
#        C:\03-githubFiles\HC32F460_FreeRTOS\HC32F460Temp_FreeRTOS\Debug\Obj\hc32f46x_pwc.o
#        C:\03-githubFiles\HC32F460_FreeRTOS\HC32F460Temp_FreeRTOS\Debug\Obj\hc32f46x_qspi.o
#        C:\03-githubFiles\HC32F460_FreeRTOS\HC32F460Temp_FreeRTOS\Debug\Obj\hc32f46x_rmu.o
#        C:\03-githubFiles\HC32F460_FreeRTOS\HC32F460Temp_FreeRTOS\Debug\Obj\hc32f46x_rtc.o
#        C:\03-githubFiles\HC32F460_FreeRTOS\HC32F460Temp_FreeRTOS\Debug\Obj\hc32f46x_sdioc.o
#        C:\03-githubFiles\HC32F460_FreeRTOS\HC32F460Temp_FreeRTOS\Debug\Obj\hc32f46x_spi.o
#        C:\03-githubFiles\HC32F460_FreeRTOS\HC32F460Temp_FreeRTOS\Debug\Obj\hc32f46x_sram.o
#        C:\03-githubFiles\HC32F460_FreeRTOS\HC32F460Temp_FreeRTOS\Debug\Obj\hc32f46x_swdt.o
#        C:\03-githubFiles\HC32F460_FreeRTOS\HC32F460Temp_FreeRTOS\Debug\Obj\hc32f46x_timer0.o
#        C:\03-githubFiles\HC32F460_FreeRTOS\HC32F460Temp_FreeRTOS\Debug\Obj\hc32f46x_timer4_cnt.o
#        C:\03-githubFiles\HC32F460_FreeRTOS\HC32F460Temp_FreeRTOS\Debug\Obj\hc32f46x_timer4_emb.o
#        C:\03-githubFiles\HC32F460_FreeRTOS\HC32F460Temp_FreeRTOS\Debug\Obj\hc32f46x_timer4_oco.o
#        C:\03-githubFiles\HC32F460_FreeRTOS\HC32F460Temp_FreeRTOS\Debug\Obj\hc32f46x_timer4_pwm.o
#        C:\03-githubFiles\HC32F460_FreeRTOS\HC32F460Temp_FreeRTOS\Debug\Obj\hc32f46x_timer4_sevt.o
#        C:\03-githubFiles\HC32F460_FreeRTOS\HC32F460Temp_FreeRTOS\Debug\Obj\hc32f46x_timer6.o
#        C:\03-githubFiles\HC32F460_FreeRTOS\HC32F460Temp_FreeRTOS\Debug\Obj\hc32f46x_timera.o
#        C:\03-githubFiles\HC32F460_FreeRTOS\HC32F460Temp_FreeRTOS\Debug\Obj\hc32f46x_trng.o
#        C:\03-githubFiles\HC32F460_FreeRTOS\HC32F460Temp_FreeRTOS\Debug\Obj\hc32f46x_usart.o
#        C:\03-githubFiles\HC32F460_FreeRTOS\HC32F460Temp_FreeRTOS\Debug\Obj\hc32f46x_utility.o
#        C:\03-githubFiles\HC32F460_FreeRTOS\HC32F460Temp_FreeRTOS\Debug\Obj\hc32f46x_wdt.o
#        C:\03-githubFiles\HC32F460_FreeRTOS\HC32F460Temp_FreeRTOS\Debug\Obj\heap_4.o
#        C:\03-githubFiles\HC32F460_FreeRTOS\HC32F460Temp_FreeRTOS\Debug\Obj\list.o
#        C:\03-githubFiles\HC32F460_FreeRTOS\HC32F460Temp_FreeRTOS\Debug\Obj\main.o
#        C:\03-githubFiles\HC32F460_FreeRTOS\HC32F460Temp_FreeRTOS\Debug\Obj\OLED.o
#        C:\03-githubFiles\HC32F460_FreeRTOS\HC32F460Temp_FreeRTOS\Debug\Obj\port.o
#        C:\03-githubFiles\HC32F460_FreeRTOS\HC32F460Temp_FreeRTOS\Debug\Obj\portasm.o
#        C:\03-githubFiles\HC32F460_FreeRTOS\HC32F460Temp_FreeRTOS\Debug\Obj\queue.o
#        C:\03-githubFiles\HC32F460_FreeRTOS\HC32F460Temp_FreeRTOS\Debug\Obj\sd_card.o
#        C:\03-githubFiles\HC32F460_FreeRTOS\HC32F460Temp_FreeRTOS\Debug\Obj\sdmmc_cmd.o
#        C:\03-githubFiles\HC32F460_FreeRTOS\HC32F460Temp_FreeRTOS\Debug\Obj\startup_hc32f46x.o
#        C:\03-githubFiles\HC32F460_FreeRTOS\HC32F460Temp_FreeRTOS\Debug\Obj\System_Clk.o
#        C:\03-githubFiles\HC32F460_FreeRTOS\HC32F460Temp_FreeRTOS\Debug\Obj\system_hc32f46x.o
#        C:\03-githubFiles\HC32F460_FreeRTOS\HC32F460Temp_FreeRTOS\Debug\Obj\tasks.o
#        C:\03-githubFiles\HC32F460_FreeRTOS\HC32F460Temp_FreeRTOS\Debug\Obj\timers.o
#        C:\03-githubFiles\HC32F460_FreeRTOS\HC32F460Temp_FreeRTOS\Debug\Obj\usb_bsp_template.o
#        C:\03-githubFiles\HC32F460_FreeRTOS\HC32F460Temp_FreeRTOS\Debug\Obj\usb_core.o
#        C:\03-githubFiles\HC32F460_FreeRTOS\HC32F460Temp_FreeRTOS\Debug\Obj\usb_dcd.o
#        C:\03-githubFiles\HC32F460_FreeRTOS\HC32F460Temp_FreeRTOS\Debug\Obj\usb_dcd_int.o
#        C:\03-githubFiles\HC32F460_FreeRTOS\HC32F460Temp_FreeRTOS\Debug\Obj\usb_otg.o
#        C:\03-githubFiles\HC32F460_FreeRTOS\HC32F460Temp_FreeRTOS\Debug\Obj\usbd_core.o
#        C:\03-githubFiles\HC32F460_FreeRTOS\HC32F460Temp_FreeRTOS\Debug\Obj\usbd_desc.o
#        C:\03-githubFiles\HC32F460_FreeRTOS\HC32F460Temp_FreeRTOS\Debug\Obj\usbd_hid_core.o
#        C:\03-githubFiles\HC32F460_FreeRTOS\HC32F460Temp_FreeRTOS\Debug\Obj\usbd_ioreq.o
#        C:\03-githubFiles\HC32F460_FreeRTOS\HC32F460Temp_FreeRTOS\Debug\Obj\usbd_req.o
#        C:\03-githubFiles\HC32F460_FreeRTOS\HC32F460Temp_FreeRTOS\Debug\Obj\usbd_urs.o
#        C:\03-githubFiles\HC32F460_FreeRTOS\HC32F460Temp_FreeRTOS\Debug\Obj\User_ADC.o
#        C:\03-githubFiles\HC32F460_FreeRTOS\HC32F460Temp_FreeRTOS\Debug\Obj\User_CAN.o
#        C:\03-githubFiles\HC32F460_FreeRTOS\HC32F460Temp_FreeRTOS\Debug\Obj\User_Crypto.o
#        C:\03-githubFiles\HC32F460_FreeRTOS\HC32F460Temp_FreeRTOS\Debug\Obj\User_DCU.o
#        C:\03-githubFiles\HC32F460_FreeRTOS\HC32F460Temp_FreeRTOS\Debug\Obj\User_DMA.o
#        C:\03-githubFiles\HC32F460_FreeRTOS\HC32F460Temp_FreeRTOS\Debug\Obj\User_Gpio.o
#        C:\03-githubFiles\HC32F460_FreeRTOS\HC32F460Temp_FreeRTOS\Debug\Obj\User_I2C.o
#        C:\03-githubFiles\HC32F460_FreeRTOS\HC32F460Temp_FreeRTOS\Debug\Obj\User_I2S.o
#        C:\03-githubFiles\HC32F460_FreeRTOS\HC32F460Temp_FreeRTOS\Debug\Obj\User_OTS.o
#        C:\03-githubFiles\HC32F460_FreeRTOS\HC32F460Temp_FreeRTOS\Debug\Obj\User_PWC.o
#        C:\03-githubFiles\HC32F460_FreeRTOS\HC32F460Temp_FreeRTOS\Debug\Obj\User_QSPI.o
#        C:\03-githubFiles\HC32F460_FreeRTOS\HC32F460Temp_FreeRTOS\Debug\Obj\User_RTC.o
#        C:\03-githubFiles\HC32F460_FreeRTOS\HC32F460Temp_FreeRTOS\Debug\Obj\User_SDIO.o
#        C:\03-githubFiles\HC32F460_FreeRTOS\HC32F460Temp_FreeRTOS\Debug\Obj\User_SPI.o
#        C:\03-githubFiles\HC32F460_FreeRTOS\HC32F460Temp_FreeRTOS\Debug\Obj\User_Task.o
#        C:\03-githubFiles\HC32F460_FreeRTOS\HC32F460Temp_FreeRTOS\Debug\Obj\User_Timer.o
#        C:\03-githubFiles\HC32F460_FreeRTOS\HC32F460Temp_FreeRTOS\Debug\Obj\User_Timer4.o
#        C:\03-githubFiles\HC32F460_FreeRTOS\HC32F460Temp_FreeRTOS\Debug\Obj\User_Timer6.o
#        C:\03-githubFiles\HC32F460_FreeRTOS\HC32F460Temp_FreeRTOS\Debug\Obj\User_TimerA.o
#        C:\03-githubFiles\HC32F460_FreeRTOS\HC32F460Temp_FreeRTOS\Debug\Obj\User_TRNG.o
#        C:\03-githubFiles\HC32F460_FreeRTOS\HC32F460Temp_FreeRTOS\Debug\Obj\User_Uart.o
#        C:\03-githubFiles\HC32F460_FreeRTOS\HC32F460Temp_FreeRTOS\Debug\Obj\wm8731.o
#        --no_out_extension -o
#        C:\03-githubFiles\HC32F460_FreeRTOS\HC32F460Temp_FreeRTOS\Debug\Exe\HC32F460_Temp_IAR.out
#        --redirect _Printf=_PrintfFull --redirect _Scanf=_ScanfFull --map
#        C:\03-githubFiles\HC32F460_FreeRTOS\HC32F460Temp_FreeRTOS\Debug\List\HC32F460_Temp_IAR.map
#        --config
#        C:\03-githubFiles\HC32F460_FreeRTOS\HC32F460Temp_FreeRTOS\HC32F46x.icf
#        --semihosting --entry __iar_program_start --vfe --text_out locale)
#
###############################################################################

*******************************************************************************
*** RUNTIME MODEL ATTRIBUTES
***

CppFlavor       = *
__SystemLibrary = DLib
__dlib_version  = 6


*******************************************************************************
*** HEAP SELECTION
***

The basic heap was selected because no calls to memory allocation
functions were found in the application outside of system library
functions, and there are calls to deallocation functions in the
application.


*******************************************************************************
*** PLACEMENT SUMMARY
***

"A0":  place at 0x0 { ro section .intvec };
"P1":  place in [from 0x0 to 0x7'ffff] { ro };
define block CSTACK with size = 1K, alignment = 8 { };
define block HEAP with size = 1K, alignment = 8 { };
"P2":  place in [from 0x1fff'8000 to 0x1fff'ffff] |
                [from 0x2000'0000 to 0x2000'ffff repeat 2] |
                [from 0x2002'0000 to 0x2002'6fff] |
                [from 0x200f'0000 to 0x200f'0fff] {
          rw, block CSTACK, block HEAP };
initialize by copy { rw };

  Section            Kind         Address    Size  Object
  -------            ----         -------    ----  ------
"A0":                                       0x280
  .intvec            ro code          0x0   0x280  startup_hc32f46x.o [1]
                                  - 0x280   0x280

"P1", part 1 of 2:                            0x0
  .rodata            const          0x280     0x0  zero_init3.o [4]
  .rodata            const          0x280     0x0  copy_init3.o [4]

Absolute sections:                           0x20
  .rodata            const          0x400    0x20  hc32f46x_icg.o [1]
                                  - 0x420    0x20

"P1", part 2 of 2:                         0xabfc
  .text              ro code        0x420  0x2474  hc32f46x_interrupts.o [1]
  .text              ro code       0x2894    0xb4  hc32f46x_exint_nmi_swi.o [1]
  .text              ro code       0x2948    0x10  cmsis_os.o [1]
  .text              ro code       0x2958     0x2  User_PWC.o [1]
  .text              ro code       0x295a    0x3a  zero_init3.o [4]
  .text              ro code       0x2994   0x6c8  tasks.o [1]
  .text              ro code       0x305c   0x204  port.o [1]
  .text              ro code       0x3260   0x260  heap_4.o [1]
  .text              ro code       0x34c0    0x98  list.o [1]
  CODE               ro code       0x3558    0xb0  portasm.o [1]
  .text              ro code       0x3608   0xf7a  xprintffull.o [2]
  .text              ro code       0x4582    0x1e  xencoding_8859_1.o [2]
  .text              ro code       0x45a0    0x78  xlocale_c.o [2]
  .text              ro code       0x4618    0x16  strchr.o [4]
  .text              ro code       0x4630    0x40  xfail_s.o [2]
  .text              ro code       0x4670    0x36  strlen.o [4]
  .text              ro code       0x46a8    0x58  memchr.o [4]
  .text              ro code       0x4700     0xa  xmbcurmax.o [2]
  .text              ro code       0x470c    0xa6  ABImemcpy.o [4]
  .text              ro code       0x47b4   0x230  I64DivMod.o [4]
  .text              ro code       0x49e4   0x1a2  DblMul.o [3]
  .text              ro code       0x4b88    0x70  frexp.o [3]
  .text              ro code       0x4bf8    0x2e  DblCmpLe.o [3]
  .text              ro code       0x4c28    0x2e  DblCmpGe.o [3]
  .text              ro code       0x4c58   0x13a  ldexp.o [3]
  .text              ro code       0x4d94    0x3a  DblToS32.o [3]
  .text              ro code       0x4dd0    0x22  S32ToDbl.o [3]
  .text              ro code       0x4df4    0xe2  DblSub.o [3]
  .text              ro code       0x4ed8   0x246  DblDiv.o [3]
  .text              ro code       0x5120    0x28  DblToU32.o [3]
  .text              ro code       0x5148    0x1a  U32ToDbl.o [3]
  .text              ro code       0x5162     0x6  abort.o [2]
  .text              ro code       0x5168     0x2  I64DivZer.o [4]
  .text              ro code       0x516c   0x17a  DblAdd.o [3]
  .text              ro code       0x52e8    0x14  exit.o [5]
  .text              ro code       0x52fc   0xa80  hc32f46x_clk.o [1]
  .text              ro code       0x5d7c    0xdc  system_hc32f46x.o [1]
  .text              ro code       0x5e58   0x850  hc32f46x_usart.o [1]
  .text              ro code       0x66a8    0x68  DblToFlt.o [3]
  .text              ro code       0x6710   0x700  hc32f46x_dmac.o [1]
  .text              ro code       0x6e10   0x63c  hc32f46x_qspi.o [1]
  .text              ro code       0x744c   0x624  hc32f46x_spi.o [1]
  .text              ro code       0x7a70   0x610  hc32f46x_gpio.o [1]
  .rodata            const         0x8080   0x5f0  OLED.o [1]
  .text              ro code       0x8670   0x4da  OLED.o [1]
  .text              ro code       0x8b4c   0x37c  hc32f46x_i2c.o [1]
  .text              ro code       0x8ec8   0x118  hc32f46x_pwc.o [1]
  .text              ro code       0x8fe0    0x66  ABImemset.o [4]
  .text              ro code       0x9048   0x324  hc32f46x_utility.o [1]
  .text              ro code       0x936c   0x318  User_SPI.o [1]
  .text              ro code       0x9684   0x300  hc32f46x_adc.o [1]
  .text              ro code       0x9984   0x2f0  hc32f46x_dcu.o [1]
  .text              ro code       0x9c74   0x274  User_QSPI.o [1]
  .text              ro code       0x9ee8    0x68  memcmp.o [4]
  .text              ro code       0x9f50    0x28  printf.o [2]
  .text              ro code       0x9f78   0x218  hc32f46x_ots.o [1]
  .text              ro code       0xa190   0x200  User_Uart.o [1]
  .text              ro code       0xa390   0x1f0  User_Gpio.o [1]
  .text              ro code       0xa580   0x170  System_Clk.o [1]
  .text              ro code       0xa6f0    0xb8  hc32f46x_efm.o [1]
  .text              ro code       0xa7a8    0x30  hc32f46x_sram.o [1]
  .text              ro code       0xa7d8   0x128  User_DMA.o [1]
  .text              ro code       0xa900   0x11c  User_ADC.o [1]
  .text              ro code       0xaa1c    0xf8  User_Task.o [1]
  .text              ro code       0xab14    0x78  User_OTS.o [1]
  .text              ro code       0xab8c    0xac  User_DCU.o [1]
  .text              ro code       0xac38    0x48  FltToDbl.o [3]
  .text              ro code       0xac80    0xb4  main.o [1]
  .text              ro code       0xad34    0x2c  copy_init3.o [4]
  .text              ro code       0xad60    0x28  data_init.o [4]
  .text              ro code       0xad88    0x22  fpinit_M.o [3]
  .iar.init_table    const         0xadac    0x24  - Linker created -
  .text              ro code       0xadd0    0x1e  cmain.o [4]
  .text              ro code       0xadee     0x4  low_level_init.o [2]
  .text              ro code       0xadf2     0x4  exit.o [2]
  .text              ro code       0xadf8     0xa  cexit.o [4]
  .rodata            const         0xae04    0x18  User_OTS.o [1]
  .text              ro code       0xae1c    0x16  xprout.o [2]
  .text              ro code       0xae34     0xc  putchar.o [2]
  .rodata            const         0xae40    0x14  User_QSPI.o [1]
  .rodata            const         0xae54    0x14  User_QSPI.o [1]
  .rodata            const         0xae68    0x14  User_Task.o [1]
  .rodata            const         0xae7c    0x10  hc32f46x_usart.o [1]
  .rodata            const         0xae8c    0x10  User_Task.o [1]
  .text              ro code       0xaea0    0x10  startup_hc32f46x.o [1]
  .rodata            const         0xaeb0     0xc  User_Task.o [1]
  .text              ro code       0xaebc     0xc  cstartup_M.o [4]
  .rodata            const         0xaec8     0x8  tasks.o [1]
  .rodata            const         0xaed0     0x8  User_Task.o [1]
  .rodata            const         0xaed8     0x6  xlocale_c.o [2]
  .rodata            const         0xaee0     0x4  hc32f46x_usart.o [1]
  .rodata            const         0xaee4     0x4  hc32f46x_usart.o [1]
  .rodata            const         0xaee8     0x4  hc32f46x_usart.o [1]
  .rodata            const         0xaeec     0x4  hc32f46x_usart.o [1]
  .rodata            const         0xaef0     0x4  heap_4.o [1]
  .text              ro code       0xaef4     0x4  startup_hc32f46x.o [1]
  .text              ro code       0xaef8     0x4  startup_hc32f46x.o [1]
  .text              ro code       0xaefc     0x4  startup_hc32f46x.o [1]
  Initializer bytes  const         0xaf00   0x11c  <for P2 s0>
                                 - 0xb01c  0xabfc

"P2", part 1 of 3:                          0x11c
  P2 s0                       0x1fff'8000   0x11c  <Init block>
    .data            inited   0x1fff'8000    0x48  xlocale_c.o [2]
    .data            inited   0x1fff'8048    0x48  xfiles.o [2]
    .data            inited   0x1fff'8090    0x44  User_QSPI.o [1]
    .data            inited   0x1fff'80d4    0x38  xlocale_c.o [2]
    .data            inited   0x1fff'810c     0x8  hc32f46x_i2c.o [1]
    .data            inited   0x1fff'8114     0x4  port.o [1]
    .data            inited   0x1fff'8118     0x4  system_hc32f46x.o [1]
                            - 0x1fff'811c   0x11c

"P2", part 2 of 3:                         0x4060
  .bss               zero     0x1fff'811c  0x3c00  heap_4.o [1]
  .bss               zero     0x1fff'bd1c   0x200  hc32f46x_interrupts.o [1]
  .bss               zero     0x1fff'bf1c    0x8c  tasks.o [1]
  .bss               zero     0x1fff'bfa8    0x50  xfiles.o [2]
  .bss               zero     0x1fff'bff8    0x44  User_QSPI.o [1]
  .bss               zero     0x1fff'c03c    0x34  User_SPI.o [1]
  .bss               zero     0x1fff'c070    0x20  main.o [1]
  .bss               zero     0x1fff'c090    0x14  tasks.o [1]
  .bss               zero     0x1fff'c0a4    0x14  tasks.o [1]
  .bss               zero     0x1fff'c0b8    0x14  tasks.o [1]
  .bss               zero     0x1fff'c0cc    0x14  tasks.o [1]
  .bss               zero     0x1fff'c0e0    0x14  tasks.o [1]
  .bss               zero     0x1fff'c0f4     0x8  heap_4.o [1]
  .bss               zero     0x1fff'c0fc     0x4  hc32f46x_exint_nmi_swi.o [1]
  .bss               zero     0x1fff'c100     0x4  hc32f46x_ots.o [1]
  .bss               zero     0x1fff'c104     0x4  hc32f46x_ots.o [1]
  .bss               zero     0x1fff'c108     0x4  heap_4.o [1]
  .bss               zero     0x1fff'c10c     0x4  heap_4.o [1]
  .bss               zero     0x1fff'c110     0x4  heap_4.o [1]
  .bss               zero     0x1fff'c114     0x4  heap_4.o [1]
  .bss               zero     0x1fff'c118     0x4  port.o [1]
  .bss               zero     0x1fff'c11c     0x4  tasks.o [1]
  .bss               zero     0x1fff'c120     0x4  tasks.o [1]
  .bss               zero     0x1fff'c124     0x4  tasks.o [1]
  .bss               zero     0x1fff'c128     0x4  tasks.o [1]
  .bss               zero     0x1fff'c12c     0x4  tasks.o [1]
  .bss               zero     0x1fff'c130     0x4  tasks.o [1]
  .bss               zero     0x1fff'c134     0x4  tasks.o [1]
  .bss               zero     0x1fff'c138     0x4  tasks.o [1]
  .bss               zero     0x1fff'c13c     0x4  tasks.o [1]
  .bss               zero     0x1fff'c140     0x4  tasks.o [1]
  .bss               zero     0x1fff'c144     0x4  tasks.o [1]
  .bss               zero     0x1fff'c148     0x4  tasks.o [1]
  .bss               zero     0x1fff'c14c     0x4  tasks.o [1]
  .bss               zero     0x1fff'c150     0x4  tasks.o [1]
  .bss               zero     0x1fff'c154     0x4  tasks.o [1]
  .bss               zero     0x1fff'c158     0x4  User_OTS.o [1]
  .bss               zero     0x1fff'c15c     0x4  User_Task.o [1]
  .bss               zero     0x1fff'c160     0x4  User_Task.o [1]
  .bss               zero     0x1fff'c164     0x4  User_Uart.o [1]
  .bss               zero     0x1fff'c168     0x4  xfail_s.o [2]
  .bss               zero     0x1fff'c16c     0x2  User_ADC.o [1]
  .bss               zero     0x1fff'c16e     0x2  User_DMA.o [1]
  .bss               zero     0x1fff'c170     0x1  hc32f46x_ots.o [1]
  .bss               zero     0x1fff'c171     0x1  port.o [1]
  .bss               zero     0x1fff'c172     0x1  User_DCU.o [1]
  .bss               zero     0x1fff'c173     0x1  User_Gpio.o [1]
  .bss               zero     0x1fff'c174     0x1  User_Gpio.o [1]
  .bss               zero     0x1fff'c175     0x1  User_Gpio.o [1]
  .bss               zero     0x1fff'c176     0x1  User_SPI.o [1]
  .bss               zero     0x1fff'c177     0x1  User_SPI.o [1]
  .bss               zero     0x1fff'c178     0x1  User_SPI.o [1]
  .bss               zero     0x1fff'c179     0x1  User_SPI.o [1]
                            - 0x1fff'c17a  0x405e

"P2", part 3 of 3:                          0x400
  CSTACK                      0x1fff'c180   0x400  <Block>
    CSTACK           uninit   0x1fff'c180   0x400  <Block tail>
                            - 0x1fff'c580   0x400

Unused ranges:

         From           To      Size
         ----           --      ----
        0x280        0x3ff     0x180
       0xb01c     0x7'ffff  0x7'4fe4
  0x1fff'c17c  0x1fff'c17f       0x4
  0x1fff'c580  0x1fff'ffff    0x3a80
  0x2000'0000  0x2000'ffff  0x1'0000
  0x2001'0000  0x2001'ffff  0x1'0000
  0x2002'0000  0x2002'6fff    0x7000
  0x200f'0000  0x200f'0fff    0x1000


*******************************************************************************
*** INIT TABLE
***

          Address      Size
          -------      ----
Zero (__iar_zero_init3)
    1 destination range, total size 0x405e:
          0x1fff'811c  0x405e

Copy (__iar_copy_init3)
    1 source range, total size 0x11c:
               0xaf00   0x11c
    1 destination range, total size 0x11c:
          0x1fff'8000   0x11c



*******************************************************************************
*** MODULE SUMMARY
***

    Module                    ro code  ro data  rw data  ro data
                                                          (abs)
    ------                    -------  -------  -------  -------
command line/config:
    ------------------------------------------------------------
    Total:

C:\03-githubFiles\HC32F460_FreeRTOS\HC32F460Temp_FreeRTOS\Debug\Obj: [1]
    OLED.o                      1 242    1 520
    System_Clk.o                  368
    User_ADC.o                    284                 2
    User_DCU.o                    172                 1
    User_DMA.o                    296                 2
    User_Gpio.o                   496                 3
    User_OTS.o                    120       24        4
    User_PWC.o                      2
    User_QSPI.o                   628      108      136
    User_SPI.o                    792                56
    User_Task.o                   248       56        8
    User_Uart.o                   512                 4
    cmsis_os.o                     16
    hc32f46x_adc.o                768
    hc32f46x_clk.o              2 688
    hc32f46x_dcu.o                752
    hc32f46x_dmac.o             1 792
    hc32f46x_efm.o                184
    hc32f46x_exint_nmi_swi.o      180                 4
    hc32f46x_gpio.o             1 552
    hc32f46x_i2c.o                892        8        8
    hc32f46x_icg.o                                            32
    hc32f46x_interrupts.o       9 332               512
    hc32f46x_ots.o                536                 9
    hc32f46x_pwc.o                280
    hc32f46x_qspi.o             1 596
    hc32f46x_spi.o              1 572
    hc32f46x_sram.o                48
    hc32f46x_usart.o            2 128       32
    hc32f46x_utility.o            804
    heap_4.o                      608        4   15 384
    list.o                        152
    main.o                        180                32
    port.o                        516        4        9
    portasm.o                     176
    startup_hc32f46x.o            668
    system_hc32f46x.o             220        4        4
    tasks.o                     1 736        8      300
    ------------------------------------------------------------
    Total:                     34 536    1 768   16 478       32

dl7M_tlf.a: [2]
    abort.o                         6
    exit.o                          4
    low_level_init.o                4
    printf.o                       40
    putchar.o                      12
    xencoding_8859_1.o             30
    xfail_s.o                      64                 4
    xfiles.o                                72      152
    xlocale_c.o                   120      134      128
    xmbcurmax.o                    10
    xprintffull.o               3 962
    xprout.o                       22
    ------------------------------------------------------------
    Total:                      4 274      206      284

m7M_tls.a: [3]
    DblAdd.o                      378
    DblCmpGe.o                     46
    DblCmpLe.o                     46
    DblDiv.o                      582
    DblMul.o                      418
    DblSub.o                      226
    DblToFlt.o                    104
    DblToS32.o                     58
    DblToU32.o                     40
    FltToDbl.o                     72
    S32ToDbl.o                     34
    U32ToDbl.o                     26
    fpinit_M.o                     34
    frexp.o                       112
    ldexp.o                       314
    ------------------------------------------------------------
    Total:                      2 490

rt7M_tl.a: [4]
    ABImemcpy.o                   166
    ABImemset.o                   102
    I64DivMod.o                   560
    I64DivZer.o                     2
    cexit.o                        10
    cmain.o                        30
    copy_init3.o                   44
    cstartup_M.o                   12
    data_init.o                    40
    memchr.o                       88
    memcmp.o                      104
    strchr.o                       22
    strlen.o                       54
    zero_init3.o                   58
    ------------------------------------------------------------
    Total:                      1 292

shb_l.a: [5]
    exit.o                         20
    ------------------------------------------------------------
    Total:                         20

    Gaps                           40        6
    Linker created                          36    1 024
----------------------------------------------------------------
    Grand Total:               42 652    2 016   17 786       32


*******************************************************************************
*** ENTRY LIST
***

Entry                       Address    Size  Type      Object
-----                       -------    ----  ----      ------
.iar.init_table$$Base        0xadac           --   Gb  - Linker created -
.iar.init_table$$Limit       0xadd0           --   Gb  - Linker created -
?main                        0xadd1          Code  Gb  cmain.o [4]
ADC1_AIN10_Data         0x1fff'c16c     0x2  Data  Gb  User_ADC.o [1]
ADC1_Start_convert           0xa919     0x8  Code  Gb  User_ADC.o [1]
ADC_AddAdcChannel            0x97fd    0x80  Code  Gb  hc32f46x_adc.o [1]
ADC_AddAnalogChannel         0x98df    0x98  Code  Lc  hc32f46x_adc.o [1]
ADC_ConfigPga                0x9889    0x56  Code  Gb  hc32f46x_adc.o [1]
ADC_EOCA_CallBack            0xa90f     0xa  Code  Gb  User_ADC.o [1]
ADC_Init                     0x9685   0x178  Code  Gb  hc32f46x_adc.o [1]
BusFault_Handler              0x4ad     0x8  Code  Gb  hc32f46x_interrupts.o [1]
CLK_GetClockFreq             0x59f5   0x120  Code  Gb  hc32f46x_clk.o [1]
CLK_GetFlagStatus            0x5ca1    0x80  Code  Gb  hc32f46x_clk.o [1]
CLK_HrcCmd                   0x5473    0x9a  Code  Gb  hc32f46x_clk.o [1]
CLK_LrcCmd                   0x550d    0x6c  Code  Gb  hc32f46x_clk.o [1]
CLK_MpllCmd                  0x56bb    0x8a  Code  Gb  hc32f46x_clk.o [1]
CLK_MpllConfig               0x55b1   0x10a  Code  Gb  hc32f46x_clk.o [1]
CLK_SetPeriClkSource         0x5c29    0x62  Code  Gb  hc32f46x_clk.o [1]
CLK_SetPllSource             0x5579    0x38  Code  Gb  hc32f46x_clk.o [1]
CLK_SetSysClkSource          0x57b9    0xe0  Code  Gb  hc32f46x_clk.o [1]
CLK_SetUsbClkSource          0x5b1d   0x102  Code  Gb  hc32f46x_clk.o [1]
CLK_SysClkConfig             0x5899   0x15c  Code  Gb  hc32f46x_clk.o [1]
CLK_UpllCmd                  0x5745    0x74  Code  Gb  hc32f46x_clk.o [1]
CLK_Xtal32Cmd                0x53fd    0x76  Code  Gb  hc32f46x_clk.o [1]
CLK_Xtal32Config             0x53b5    0x48  Code  Gb  hc32f46x_clk.o [1]
CLK_XtalCmd                  0x52fd    0xb8  Code  Gb  hc32f46x_clk.o [1]
CSTACK$$Base            0x1fff'c180           --   Gb  - Linker created -
CSTACK$$Limit           0x1fff'c580           --   Gb  - Linker created -
CacheMore                    0x45a5    0x24  Code  Lc  xlocale_c.o [2]
Clkdata                 0x1fff'c070    0x20  Data  Gb  main.o [1]
DCU1_INT_Callback            0xaba9     0x8  Code  Lc  User_DCU.o [1]
DCU_Init                     0x9985   0x10e  Code  Gb  hc32f46x_dcu.o [1]
DCU_SetTriggerSrc            0x9a93   0x192  Code  Gb  hc32f46x_dcu.o [1]
DCU_TRGSELx                  0x9c25    0x2c  Code  Lc  hc32f46x_dcu.o [1]
DMA1_CH0_Callback            0xa7fb    0x1a  Code  Gb  User_DMA.o [1]
DMA_ChannelCfg               0x6911   0x2c2  Code  Gb  hc32f46x_dmac.o [1]
DMA_ChannelCmd               0x683f    0x80  Code  Gb  hc32f46x_dmac.o [1]
DMA_ClearIrqFlag             0x6757    0xe8  Code  Gb  hc32f46x_dmac.o [1]
DMA_Cmd                      0x6711    0x46  Code  Gb  hc32f46x_dmac.o [1]
DMA_InitChannel              0x6bd3   0x22c  Code  Gb  hc32f46x_dmac.o [1]
DMA_SetTriggerSrc            0x68c9    0x48  Code  Gb  hc32f46x_dmac.o [1]
Dcu1_result             0x1fff'c16e     0x2  Data  Gb  User_DMA.o [1]
Ddl_Delay1ms                 0x92fb    0x34  Code  Gb  hc32f46x_utility.o [1]
Ddl_UartInit                 0x9279    0x82  Code  Gb  hc32f46x_utility.o [1]
DebugMon_Handler              0x4bd     0x8  Code  Gb  hc32f46x_interrupts.o [1]
DebugOutput                  0x9049    0x14  Code  Gb  hc32f46x_utility.o [1]
EFM_InstructionCacheCmd
                             0xa76d    0x32  Code  Gb  hc32f46x_efm.o [1]
EFM_Lock                     0xa703    0x14  Code  Gb  hc32f46x_efm.o [1]
EFM_SetLatency               0xa717    0x56  Code  Gb  hc32f46x_efm.o [1]
EFM_Unlock                   0xa6f1    0x12  Code  Gb  hc32f46x_efm.o [1]
EXINT_Init                   0x2895    0x92  Code  Gb  hc32f46x_exint_nmi_swi.o [1]
F8X16                        0x8080   0x5f0  Data  Gb  OLED.o [1]
GetFreqReg                   0x8b4d    0x32  Code  Lc  hc32f46x_i2c.o [1]
Get_ADC1_Data                0xa901     0x8  Code  Gb  User_ADC.o [1]
Get_DCU1_Result              0xa7f5     0x6  Code  Gb  User_DMA.o [1]
HardFault_Handler             0x49d     0x8  Code  Gb  hc32f46x_interrupts.o [1]
Hd_Task_ADC             0x1fff'c160     0x4  Data  Gb  User_Task.o [1]
Hd_Task_LED             0x1fff'c15c     0x4  Data  Gb  User_Task.o [1]
I2C_BaudrateConfig           0x8b81    0x94  Code  Gb  hc32f46x_i2c.o [1]
I2C_ClearStatus              0x8e89    0x26  Code  Gb  hc32f46x_i2c.o [1]
I2C_Cmd                      0x8cd7    0x44  Code  Gb  hc32f46x_i2c.o [1]
I2C_DeInit                   0x8c15    0x32  Code  Gb  hc32f46x_i2c.o [1]
I2C_GenerateReStart          0x8d5f    0x3e  Code  Gb  hc32f46x_i2c.o [1]
I2C_GenerateStart            0x8d21    0x3e  Code  Gb  hc32f46x_i2c.o [1]
I2C_GenerateStop             0x8d9d    0x3e  Code  Gb  hc32f46x_i2c.o [1]
I2C_GetStatus                0x8dfb    0x8e  Code  Gb  hc32f46x_i2c.o [1]
I2C_Init                     0x8c47    0x90  Code  Gb  hc32f46x_i2c.o [1]
I2C_SendData                 0x8ddb    0x20  Code  Gb  hc32f46x_i2c.o [1]
IRQ000_Handler                0x4d1    0x12  Code  Gb  hc32f46x_interrupts.o [1]
IRQ001_Handler                0x4e3    0x12  Code  Gb  hc32f46x_interrupts.o [1]
IRQ002_Handler                0x4f5    0x12  Code  Gb  hc32f46x_interrupts.o [1]
IRQ003_Handler                0x507    0x12  Code  Gb  hc32f46x_interrupts.o [1]
IRQ004_Handler                0x519    0x12  Code  Gb  hc32f46x_interrupts.o [1]
IRQ005_Handler                0x52b    0x12  Code  Gb  hc32f46x_interrupts.o [1]
IRQ006_Handler                0x53d    0x12  Code  Gb  hc32f46x_interrupts.o [1]
IRQ007_Handler                0x54f    0x12  Code  Gb  hc32f46x_interrupts.o [1]
IRQ008_Handler                0x561    0x12  Code  Gb  hc32f46x_interrupts.o [1]
IRQ009_Handler                0x573    0x12  Code  Gb  hc32f46x_interrupts.o [1]
IRQ010_Handler                0x585    0x12  Code  Gb  hc32f46x_interrupts.o [1]
IRQ011_Handler                0x597    0x12  Code  Gb  hc32f46x_interrupts.o [1]
IRQ012_Handler                0x5a9    0x12  Code  Gb  hc32f46x_interrupts.o [1]
IRQ013_Handler                0x5bb    0x12  Code  Gb  hc32f46x_interrupts.o [1]
IRQ014_Handler                0x5cd    0x12  Code  Gb  hc32f46x_interrupts.o [1]
IRQ015_Handler                0x5df    0x12  Code  Gb  hc32f46x_interrupts.o [1]
IRQ016_Handler                0x5f1    0x12  Code  Gb  hc32f46x_interrupts.o [1]
IRQ017_Handler                0x603    0x12  Code  Gb  hc32f46x_interrupts.o [1]
IRQ018_Handler                0x615    0x12  Code  Gb  hc32f46x_interrupts.o [1]
IRQ019_Handler                0x627    0x12  Code  Gb  hc32f46x_interrupts.o [1]
IRQ020_Handler                0x639    0x12  Code  Gb  hc32f46x_interrupts.o [1]
IRQ021_Handler                0x64b    0x12  Code  Gb  hc32f46x_interrupts.o [1]
IRQ022_Handler                0x65d    0x12  Code  Gb  hc32f46x_interrupts.o [1]
IRQ023_Handler                0x66f    0x12  Code  Gb  hc32f46x_interrupts.o [1]
IRQ024_Handler                0x681    0x12  Code  Gb  hc32f46x_interrupts.o [1]
IRQ025_Handler                0x693    0x12  Code  Gb  hc32f46x_interrupts.o [1]
IRQ026_Handler                0x6a5    0x12  Code  Gb  hc32f46x_interrupts.o [1]
IRQ027_Handler                0x6b7    0x12  Code  Gb  hc32f46x_interrupts.o [1]
IRQ028_Handler                0x6c9    0x12  Code  Gb  hc32f46x_interrupts.o [1]
IRQ029_Handler                0x6db    0x12  Code  Gb  hc32f46x_interrupts.o [1]
IRQ030_Handler                0x6ed    0x12  Code  Gb  hc32f46x_interrupts.o [1]
IRQ031_Handler                0x6ff    0x12  Code  Gb  hc32f46x_interrupts.o [1]
IRQ032_Handler                0x711    0x16  Code  Gb  hc32f46x_interrupts.o [1]
IRQ033_Handler                0x727    0x16  Code  Gb  hc32f46x_interrupts.o [1]
IRQ034_Handler                0x73d    0x16  Code  Gb  hc32f46x_interrupts.o [1]
IRQ035_Handler                0x753    0x16  Code  Gb  hc32f46x_interrupts.o [1]
IRQ036_Handler                0x769    0x16  Code  Gb  hc32f46x_interrupts.o [1]
IRQ037_Handler                0x77f    0x16  Code  Gb  hc32f46x_interrupts.o [1]
IRQ038_Handler                0x795    0x16  Code  Gb  hc32f46x_interrupts.o [1]
IRQ039_Handler                0x7ab    0x16  Code  Gb  hc32f46x_interrupts.o [1]
IRQ040_Handler                0x7c1    0x16  Code  Gb  hc32f46x_interrupts.o [1]
IRQ041_Handler                0x7d7    0x16  Code  Gb  hc32f46x_interrupts.o [1]
IRQ042_Handler                0x7ed    0x16  Code  Gb  hc32f46x_interrupts.o [1]
IRQ043_Handler                0x803    0x16  Code  Gb  hc32f46x_interrupts.o [1]
IRQ044_Handler                0x819    0x16  Code  Gb  hc32f46x_interrupts.o [1]
IRQ045_Handler                0x82f    0x16  Code  Gb  hc32f46x_interrupts.o [1]
IRQ046_Handler                0x845    0x16  Code  Gb  hc32f46x_interrupts.o [1]
IRQ047_Handler                0x85b    0x16  Code  Gb  hc32f46x_interrupts.o [1]
IRQ048_Handler                0x871    0x16  Code  Gb  hc32f46x_interrupts.o [1]
IRQ049_Handler                0x887    0x16  Code  Gb  hc32f46x_interrupts.o [1]
IRQ050_Handler                0x89d    0x16  Code  Gb  hc32f46x_interrupts.o [1]
IRQ051_Handler                0x8b3    0x16  Code  Gb  hc32f46x_interrupts.o [1]
IRQ052_Handler                0x8c9    0x16  Code  Gb  hc32f46x_interrupts.o [1]
IRQ053_Handler                0x8df    0x16  Code  Gb  hc32f46x_interrupts.o [1]
IRQ054_Handler                0x8f5    0x16  Code  Gb  hc32f46x_interrupts.o [1]
IRQ055_Handler                0x90b    0x16  Code  Gb  hc32f46x_interrupts.o [1]
IRQ056_Handler                0x921    0x16  Code  Gb  hc32f46x_interrupts.o [1]
IRQ057_Handler                0x937    0x16  Code  Gb  hc32f46x_interrupts.o [1]
IRQ058_Handler                0x94d    0x16  Code  Gb  hc32f46x_interrupts.o [1]
IRQ059_Handler                0x963    0x16  Code  Gb  hc32f46x_interrupts.o [1]
IRQ060_Handler                0x979    0x16  Code  Gb  hc32f46x_interrupts.o [1]
IRQ061_Handler                0x98f    0x16  Code  Gb  hc32f46x_interrupts.o [1]
IRQ062_Handler                0x9a5    0x16  Code  Gb  hc32f46x_interrupts.o [1]
IRQ063_Handler                0x9bb    0x16  Code  Gb  hc32f46x_interrupts.o [1]
IRQ064_Handler                0x9d1    0x16  Code  Gb  hc32f46x_interrupts.o [1]
IRQ065_Handler                0x9e7    0x16  Code  Gb  hc32f46x_interrupts.o [1]
IRQ066_Handler                0x9fd    0x16  Code  Gb  hc32f46x_interrupts.o [1]
IRQ067_Handler                0xa13    0x16  Code  Gb  hc32f46x_interrupts.o [1]
IRQ068_Handler                0xa29    0x16  Code  Gb  hc32f46x_interrupts.o [1]
IRQ069_Handler                0xa3f    0x16  Code  Gb  hc32f46x_interrupts.o [1]
IRQ070_Handler                0xa55    0x16  Code  Gb  hc32f46x_interrupts.o [1]
IRQ071_Handler                0xa6b    0x16  Code  Gb  hc32f46x_interrupts.o [1]
IRQ072_Handler                0xa81    0x16  Code  Gb  hc32f46x_interrupts.o [1]
IRQ073_Handler                0xa97    0x16  Code  Gb  hc32f46x_interrupts.o [1]
IRQ074_Handler                0xaad    0x16  Code  Gb  hc32f46x_interrupts.o [1]
IRQ075_Handler                0xac3    0x16  Code  Gb  hc32f46x_interrupts.o [1]
IRQ076_Handler                0xad9    0x16  Code  Gb  hc32f46x_interrupts.o [1]
IRQ077_Handler                0xaef    0x16  Code  Gb  hc32f46x_interrupts.o [1]
IRQ078_Handler                0xb05    0x16  Code  Gb  hc32f46x_interrupts.o [1]
IRQ079_Handler                0xb1b    0x16  Code  Gb  hc32f46x_interrupts.o [1]
IRQ080_Handler                0xb31    0x16  Code  Gb  hc32f46x_interrupts.o [1]
IRQ081_Handler                0xb47    0x16  Code  Gb  hc32f46x_interrupts.o [1]
IRQ082_Handler                0xb5d    0x14  Code  Gb  hc32f46x_interrupts.o [1]
IRQ083_Handler                0xb71    0x14  Code  Gb  hc32f46x_interrupts.o [1]
IRQ084_Handler                0xb85    0x14  Code  Gb  hc32f46x_interrupts.o [1]
IRQ085_Handler                0xb99    0x14  Code  Gb  hc32f46x_interrupts.o [1]
IRQ086_Handler                0xbad    0x14  Code  Gb  hc32f46x_interrupts.o [1]
IRQ087_Handler                0xbc1    0x14  Code  Gb  hc32f46x_interrupts.o [1]
IRQ088_Handler                0xbd5    0x14  Code  Gb  hc32f46x_interrupts.o [1]
IRQ089_Handler                0xbe9    0x14  Code  Gb  hc32f46x_interrupts.o [1]
IRQ090_Handler                0xbfd    0x14  Code  Gb  hc32f46x_interrupts.o [1]
IRQ091_Handler                0xc11    0x14  Code  Gb  hc32f46x_interrupts.o [1]
IRQ092_Handler                0xc25    0x14  Code  Gb  hc32f46x_interrupts.o [1]
IRQ093_Handler                0xc39    0x14  Code  Gb  hc32f46x_interrupts.o [1]
IRQ094_Handler                0xc4d    0x14  Code  Gb  hc32f46x_interrupts.o [1]
IRQ095_Handler                0xc61    0x14  Code  Gb  hc32f46x_interrupts.o [1]
IRQ096_Handler                0xc75    0x14  Code  Gb  hc32f46x_interrupts.o [1]
IRQ097_Handler                0xc89    0x14  Code  Gb  hc32f46x_interrupts.o [1]
IRQ098_Handler                0xc9d    0x14  Code  Gb  hc32f46x_interrupts.o [1]
IRQ099_Handler                0xcb1    0x14  Code  Gb  hc32f46x_interrupts.o [1]
IRQ100_Handler                0xcc5    0x14  Code  Gb  hc32f46x_interrupts.o [1]
IRQ101_Handler                0xcd9    0x14  Code  Gb  hc32f46x_interrupts.o [1]
IRQ102_Handler                0xced    0x14  Code  Gb  hc32f46x_interrupts.o [1]
IRQ103_Handler                0xd01    0x14  Code  Gb  hc32f46x_interrupts.o [1]
IRQ104_Handler                0xd15    0x14  Code  Gb  hc32f46x_interrupts.o [1]
IRQ105_Handler                0xd29    0x14  Code  Gb  hc32f46x_interrupts.o [1]
IRQ106_Handler                0xd3d    0x14  Code  Gb  hc32f46x_interrupts.o [1]
IRQ107_Handler                0xd51    0x14  Code  Gb  hc32f46x_interrupts.o [1]
IRQ108_Handler                0xd65    0x14  Code  Gb  hc32f46x_interrupts.o [1]
IRQ109_Handler                0xd79    0x14  Code  Gb  hc32f46x_interrupts.o [1]
IRQ110_Handler                0xd8d    0x14  Code  Gb  hc32f46x_interrupts.o [1]
IRQ111_Handler                0xda1    0x14  Code  Gb  hc32f46x_interrupts.o [1]
IRQ112_Handler                0xdb5    0x14  Code  Gb  hc32f46x_interrupts.o [1]
IRQ113_Handler                0xdc9    0x14  Code  Gb  hc32f46x_interrupts.o [1]
IRQ114_Handler                0xddd    0x14  Code  Gb  hc32f46x_interrupts.o [1]
IRQ115_Handler                0xdf1    0x14  Code  Gb  hc32f46x_interrupts.o [1]
IRQ116_Handler                0xe09    0x14  Code  Gb  hc32f46x_interrupts.o [1]
IRQ117_Handler                0xe21    0x16  Code  Gb  hc32f46x_interrupts.o [1]
IRQ118_Handler                0xe39    0x16  Code  Gb  hc32f46x_interrupts.o [1]
IRQ119_Handler                0xe4f    0x16  Code  Gb  hc32f46x_interrupts.o [1]
IRQ120_Handler                0xe65    0x16  Code  Gb  hc32f46x_interrupts.o [1]
IRQ121_Handler                0xe7d    0x16  Code  Gb  hc32f46x_interrupts.o [1]
IRQ122_Handler                0xe93    0x16  Code  Gb  hc32f46x_interrupts.o [1]
IRQ123_Handler                0xea9    0x16  Code  Gb  hc32f46x_interrupts.o [1]
IRQ124_Handler                0xec1    0x16  Code  Gb  hc32f46x_interrupts.o [1]
IRQ125_Handler                0xed7    0x16  Code  Gb  hc32f46x_interrupts.o [1]
IRQ126_Handler                0xeed    0x16  Code  Gb  hc32f46x_interrupts.o [1]
IRQ127_Handler                0xf03    0x16  Code  Gb  hc32f46x_interrupts.o [1]
IRQ128_Handler                0xf19   0x1c0  Code  Gb  hc32f46x_interrupts.o [1]
IRQ129_Handler               0x10d9   0x2cc  Code  Gb  hc32f46x_interrupts.o [1]
IRQ130_Handler               0x13a5    0xf8  Code  Gb  hc32f46x_interrupts.o [1]
IRQ131_Handler               0x149d   0x25c  Code  Gb  hc32f46x_interrupts.o [1]
IRQ132_Handler               0x16f9   0x130  Code  Gb  hc32f46x_interrupts.o [1]
IRQ136_Handler               0x1835   0x312  Code  Gb  hc32f46x_interrupts.o [1]
IRQ137_Handler               0x1b71   0x2d0  Code  Gb  hc32f46x_interrupts.o [1]
IRQ138_Handler               0x1e79   0x298  Code  Gb  hc32f46x_interrupts.o [1]
IRQ139_Handler               0x2119   0x14e  Code  Gb  hc32f46x_interrupts.o [1]
IRQ140_Handler               0x228d   0x1a8  Code  Gb  hc32f46x_interrupts.o [1]
IRQ141_Handler               0x2455   0x1ea  Code  Gb  hc32f46x_interrupts.o [1]
IRQ142_Handler               0x2651    0xe2  Code  Gb  hc32f46x_interrupts.o [1]
IRQ143_Handler               0x273d    0x7e  Code  Gb  hc32f46x_interrupts.o [1]
IrqHandler              0x1fff'bd1c   0x200  Data  Gb  hc32f46x_interrupts.o [1]
LED0_Toggle                  0xa4af    0xb8  Code  Gb  User_Gpio.o [1]
LED_Status              0x1fff'c175     0x1  Data  Gb  User_Gpio.o [1]
LoadInt                      0x37cb    0x7a  Code  Lc  xprintffull.o [2]
Lvd1_IrqHandler              0x2959     0x2  Code  Gb  User_PWC.o [1]
MemManage_Handler             0x4a5     0x8  Code  Gb  hc32f46x_interrupts.o [1]
NMI_Handler                   0x495     0x8  Code  Gb  hc32f46x_interrupts.o [1]
NMI_IrqHandler               0x2927    0x18  Code  Gb  hc32f46x_exint_nmi_swi.o [1]
OLED_Clear                   0x893f    0x44  Code  Gb  OLED.o [1]
OLED_Display_On              0x8923    0x1c  Code  Gb  OLED.o [1]
OLED_I2C3_init               0x88d1    0x52  Code  Gb  OLED.o [1]
OLED_Init                    0x8a7d    0xce  Code  Gb  OLED.o [1]
OLED_SendAdr                 0x86e9    0x6c  Code  Lc  OLED.o [1]
OLED_Set_Pos                 0x8983    0x36  Code  Gb  OLED.o [1]
OLED_ShowChar                0x89b9    0x7c  Code  Gb  OLED.o [1]
OLED_ShowString              0x8a35    0x3a  Code  Gb  OLED.o [1]
OLED_StartOrRestart          0x8671    0x78  Code  Lc  OLED.o [1]
OLED_Stop                    0x87d5    0x4a  Code  Gb  OLED.o [1]
OLED_WR_Byte                 0x88b9    0x18  Code  Gb  OLED.o [1]
OLED_WriteData               0x8755    0x80  Code  Lc  OLED.o [1]
OTS_CheckSample              0xa02d    0x76  Code  Gb  hc32f46x_ots.o [1]
OTS_ComputeTemp              0xa105    0x4e  Code  Lc  hc32f46x_ots.o [1]
OTS_Init                     0x9f79    0xa0  Code  Gb  hc32f46x_ots.o [1]
OTS_ReadData                 0xa0b7    0x4c  Code  Lc  hc32f46x_ots.o [1]
OTS_StartGetTemp             0xa019    0x14  Code  Gb  hc32f46x_ots.o [1]
OTS_Trimming                 0xa0a3    0x14  Code  Lc  hc32f46x_ots.o [1]
OtsBaseConfig                0xab15    0x48  Code  Gb  User_OTS.o [1]
PORT_Init                    0x7a71   0x1c4  Code  Gb  hc32f46x_gpio.o [1]
PORT_Lock                    0x7c41     0xc  Code  Gb  hc32f46x_gpio.o [1]
PORT_ResetBits               0x7c9b    0x4e  Code  Gb  hc32f46x_gpio.o [1]
PORT_SetBits                 0x7c4d    0x4e  Code  Gb  hc32f46x_gpio.o [1]
PORT_SetFunc                 0x7ced   0x382  Code  Gb  hc32f46x_gpio.o [1]
PORT_Unlock                  0x7c35     0xc  Code  Gb  hc32f46x_gpio.o [1]
PWC_Fcg0PeriphClockCmd       0x8ec9    0x5c  Code  Gb  hc32f46x_pwc.o [1]
PWC_Fcg1PeriphClockCmd       0x8f25    0x4c  Code  Gb  hc32f46x_pwc.o [1]
PWC_Fcg3PeriphClockCmd       0x8f71    0x4c  Code  Gb  hc32f46x_pwc.o [1]
PendSV_Handler               0x3559          Code  Gb  portasm.o [1]
Print_CPU_Temperature        0xab65    0x20  Code  Gb  User_OTS.o [1]
QSPI_CommProtocolConfig
                             0x731f    0xe4  Code  Gb  hc32f46x_qspi.o [1]
QSPI_EnterDirectCommMode
                             0x7419    0x12  Code  Gb  hc32f46x_qspi.o [1]
QSPI_ExitDirectCommMode
                             0x742b    0x12  Code  Gb  hc32f46x_qspi.o [1]
QSPI_Init                    0x6e11   0x50e  Code  Gb  hc32f46x_qspi.o [1]
QSPI_ReadDirectCommValue
                             0x7411     0x8  Code  Gb  hc32f46x_qspi.o [1]
QSPI_WriteDirectCommValue
                             0x7403     0xe  Code  Gb  hc32f46x_qspi.o [1]
QspiFlash_Erase4KbSector
                             0x9e1f    0x44  Code  Gb  User_QSPI.o [1]
QspiFlash_WaitForWriteEnd
                             0x9d6b    0x48  Code  Gb  User_QSPI.o [1]
QspiFlash_WriteEnable        0x9d59    0x12  Code  Gb  User_QSPI.o [1]
QspiFlash_WritePage          0x9db3    0x6c  Code  Gb  User_QSPI.o [1]
RXbuff                  0x1fff'c03c    0x34  Data  Gb  User_SPI.o [1]
Region$$Table$$Base          0xadac           --   Gb  - Linker created -
Region$$Table$$Limit         0xadd0           --   Gb  - Linker created -
SPI1_RX_Data            0x1fff'c176     0x1  Data  Gb  User_SPI.o [1]
SPI_Cmd                      0x78f1    0x52  Code  Gb  hc32f46x_spi.o [1]
SPI_Init                     0x744d   0x4a4  Code  Gb  hc32f46x_spi.o [1]
SPI_IrqCmd                   0x79b1    0xae  Code  Gb  hc32f46x_spi.o [1]
SPI_ReceiveData8             0x7977    0x2e  Code  Gb  hc32f46x_spi.o [1]
SPI_SendData8                0x7943    0x34  Code  Gb  hc32f46x_spi.o [1]
SRAM_CK_Disable              0xa7bd     0xa  Code  Gb  hc32f46x_sram.o [1]
SRAM_CK_Enable               0xa7c7     0xa  Code  Gb  hc32f46x_sram.o [1]
SRAM_WT_Disable              0xa7a9     0xa  Code  Gb  hc32f46x_sram.o [1]
SRAM_WT_Enable               0xa7b3     0xa  Code  Gb  hc32f46x_sram.o [1]
SVC_Handler                  0x35b1          Code  Gb  portasm.o [1]
SetClkSyncBaudrate           0x6489   0x1ac  Code  Lc  hc32f46x_usart.o [1]
SetScBaudrate                0x63ad    0xdc  Code  Lc  hc32f46x_usart.o [1]
SetUartBaudrate              0x619d   0x20e  Code  Lc  hc32f46x_usart.o [1]
SetUartBaudrate              0x906d   0x20c  Code  Lc  hc32f46x_utility.o [1]
Set_ADC_Data                 0xa909     0x6  Code  Gb  User_ADC.o [1]
SysTick_Config               0xacc1    0x2e  Code  Lc  main.o [1]
SysTick_Handler               0x4c5     0xc  Code  Gb  hc32f46x_interrupts.o [1]
SystemCoreClock         0x1fff'8118     0x4  Data  Gb  system_hc32f46x.o [1]
SystemCoreClockUpdate        0x5d85    0xbe  Code  Gb  system_hc32f46x.o [1]
SystemInit                   0x5d7d     0x8  Code  Gb  system_hc32f46x.o [1]
Task_ADC                     0xaa89    0x46  Code  Gb  User_Task.o [1]
Task_LED                     0xaa25    0x64  Code  Gb  User_Task.o [1]
Test_QSPI                    0x9e63    0x6e  Code  Gb  User_QSPI.o [1]
Test_QSPI::rxBuffer     0x1fff'bff8    0x44  Data  Lc  User_QSPI.o [1]
Test_QSPI::txBuffer     0x1fff'8090    0x44  Data  Lc  User_QSPI.o [1]
USART_FuncCmd                0x5ff5   0x138  Code  Gb  hc32f46x_usart.o [1]
USART_RX_Callback            0xa1f5     0x8  Code  Gb  User_Uart.o [1]
USART_RX_ERROR_Callback
                             0xa1fd    0x3c  Code  Gb  User_Uart.o [1]
USART_SetBaudrate            0x614d    0x50  Code  Gb  hc32f46x_usart.o [1]
USART_UART_Init              0x5e59   0x19c  Code  Gb  hc32f46x_usart.o [1]
USER_SPI3_ERR_Callback       0x942b    0x52  Code  Gb  User_SPI.o [1]
USER_SPI3_IDEL_Callback
                             0x9423     0x8  Code  Gb  User_SPI.o [1]
USER_SPI3_RX_Callback        0x93db    0x48  Code  Gb  User_SPI.o [1]
USER_SPI3_TX_Callback        0x93c9    0x12  Code  Gb  User_SPI.o [1]
UsageFault_Handler            0x4b5     0x8  Code  Gb  hc32f46x_interrupts.o [1]
UsartGetClk                  0x6635    0x4c  Code  Lc  hc32f46x_usart.o [1]
User_ADC_Init                0xa921    0xdc  Code  Gb  User_ADC.o [1]
User_DCU_Init                0xabb1    0x78  Code  Gb  User_DCU.o [1]
User_DMA_Init                0xa815    0xce  Code  Gb  User_DMA.o [1]
User_Gpio_Init               0xa3bd    0xf2  Code  Gb  User_Gpio.o [1]
User_I2C3_Master_Write       0x881f    0x72  Code  Gb  OLED.o [1]
User_OTS_Init                0xab5d     0x8  Code  Gb  User_OTS.o [1]
User_QSPI_Flash_Init         0x9c75    0xe4  Code  Gb  User_QSPI.o [1]
User_SPI_Init                0x947d   0x1c8  Code  Gb  User_SPI.o [1]
User_Task_Create             0xaacf    0x1c  Code  Gb  User_Task.o [1]
User_USART_Init              0xa239   0x130  Code  Gb  User_Uart.o [1]
Write_IIC_Command            0x8891    0x14  Code  Gb  OLED.o [1]
Write_IIC_Data               0x88a5    0x14  Code  Gb  OLED.o [1]
_Encoding_8859_1_Mbrlen
                             0x4595     0x2  Code  Gb  xencoding_8859_1.o [2]
_Encoding_8859_1_Wctomb
                             0x4583    0x12  Code  Gb  xencoding_8859_1.o [2]
_GenldFull                   0x425d   0x274  Code  Lc  xprintffull.o [2]
_LdtobFull                   0x3e31   0x400  Code  Lc  xprintffull.o [2]
_LitobFull                   0x3cd9   0x112  Code  Lc  xprintffull.o [2]
_Locale_lconv           0x1fff'80d4    0x38  Data  Lc  xlocale_c.o [2]
_PrintfFull                  0x3609   0x1aa  Code  Gb  xprintffull.o [2]
_Prout                       0xae1d    0x16  Code  Gb  xprout.o [2]
_PutcharsFull                0x44d1    0x2e  Code  Lc  xprintffull.o [2]
_PutfldFull                  0x3845   0x2d8  Code  Lc  xprintffull.o [2]
_PutstrFull                  0x3c13    0xc6  Code  Lc  xprintffull.o [2]
_PuttxtFull                  0x3b1d    0xf6  Code  Lc  xprintffull.o [2]
__NVIC_ClearPendingIRQ       0x9389    0x1c  Code  Lc  User_SPI.o [1]
__NVIC_ClearPendingIRQ       0xa1af    0x1e  Code  Lc  User_Uart.o [1]
__NVIC_EnableIRQ             0xac81    0x1c  Code  Lc  main.o [1]
__NVIC_EnableIRQ             0xab8d    0x1c  Code  Lc  User_DCU.o [1]
__NVIC_EnableIRQ             0xa7d9    0x1c  Code  Lc  User_DMA.o [1]
__NVIC_EnableIRQ             0xa391    0x1c  Code  Lc  User_Gpio.o [1]
__NVIC_EnableIRQ             0x936d    0x1c  Code  Lc  User_SPI.o [1]
__NVIC_EnableIRQ             0xa191    0x1e  Code  Lc  User_Uart.o [1]
__NVIC_SetPriority           0xac9d    0x24  Code  Lc  main.o [1]
__NVIC_SetPriority           0x93a5    0x24  Code  Lc  User_SPI.o [1]
__NVIC_SetPriority           0xa1cd    0x28  Code  Lc  User_Uart.o [1]
__aeabi_cdcmple              0x4bf9          Code  Gb  DblCmpLe.o [3]
__aeabi_cdrcmple             0x4c29          Code  Gb  DblCmpGe.o [3]
__aeabi_d2f                  0x66a9          Code  Gb  DblToFlt.o [3]
__aeabi_d2iz                 0x4d95          Code  Gb  DblToS32.o [3]
__aeabi_d2uiz                0x5121          Code  Gb  DblToU32.o [3]
__aeabi_dadd                 0x516d          Code  Gb  DblAdd.o [3]
__aeabi_ddiv                 0x4ed9          Code  Gb  DblDiv.o [3]
__aeabi_dmul                 0x49e5          Code  Gb  DblMul.o [3]
__aeabi_dsub                 0x4df5          Code  Gb  DblSub.o [3]
__aeabi_f2d                  0xac39          Code  Gb  FltToDbl.o [3]
__aeabi_i2d                  0x4dd1          Code  Gb  S32ToDbl.o [3]
__aeabi_ldiv0                0x5169          Code  Gb  I64DivZer.o [4]
__aeabi_memcpy               0x470d          Code  Gb  ABImemcpy.o [4]
__aeabi_memcpy4              0x472d          Code  Gb  ABImemcpy.o [4]
__aeabi_memcpy8              0x472d          Code  Gb  ABImemcpy.o [4]
__aeabi_memset               0x8fe1          Code  Gb  ABImemset.o [4]
__aeabi_ui2d                 0x5149          Code  Gb  U32ToDbl.o [3]
__aeabi_uldivmod             0x47b5          Code  Gb  I64DivMod.o [4]
__cmain                      0xadd1          Code  Gb  cmain.o [4]
__exit                       0x52e9    0x14  Code  Gb  exit.o [5]
__iar_Fail_s                 0x4631    0x1c  Code  Gb  xfail_s.o [2]
__iar_Mbcurmax               0x4701     0xa  Code  Gb  xmbcurmax.o [2]
__iar_Memchr                 0x46a9          Code  Gb  memchr.o [4]
__iar_Memset                 0x8fe1          Code  Gb  ABImemset.o [4]
__iar_Memset_word            0x8fe9          Code  Gb  ABImemset.o [4]
__iar_Stdout            0x1fff'8048    0x48  Data  Gb  xfiles.o [2]
__iar_Strchr                 0x4619          Code  Gb  strchr.o [4]
__iar_copy_init3             0xad35    0x2c  Code  Gb  copy_init3.o [4]
__iar_dadd                   0x4e05          Code  Gb  DblSub.o [3]
__iar_data_init3             0xad61    0x28  Code  Gb  data_init.o [4]
__iar_dsub                   0x517d          Code  Gb  DblAdd.o [3]
__iar_dsubStart              0x518f          Code  Gb  DblAdd.o [3]
__iar_frexp                  0x4b95          Code  Gb  frexp.o [3]
__iar_frexpl                 0x4b95          Code  Gb  frexp.o [3]
__iar_globLocale        0x1fff'8000    0x48  Data  Lc  xlocale_c.o [2]
__iar_global_Locale          0x45a1     0x4  Code  Gb  xlocale_c.o [2]
__iar_init_vfp               0xad89          Code  Gb  fpinit_M.o [3]
__iar_ldexp64                0x4c59          Code  Gb  ldexp.o [3]
__iar_program_start          0xaebd          Code  Gb  cstartup_M.o [4]
__iar_scalbln64              0x4c59          Code  Gb  ldexp.o [3]
__iar_scalbn64               0x4c59          Code  Gb  ldexp.o [3]
__iar_softfp___iar_frexp64
                             0x4b89          Code  Gb  frexp.o [3]
__iar_softfp_frexp           0x4b89          Code  Gb  frexp.o [3]
__iar_softfp_frexpl          0x4b89          Code  Gb  frexp.o [3]
__iar_zero_init3             0x295b    0x3a  Code  Gb  zero_init3.o [4]
__low_level_init             0xadef     0x4  Code  Gb  low_level_init.o [2]
__vector_table                  0x0          Data  Gb  startup_hc32f46x.o [1]
_call_main                   0xaddd          Code  Gb  cmain.o [4]
_exit                        0xadf9          Code  Gb  cexit.o [4]
_gLocale_mblen               0x4605     0x4  Code  Gb  xlocale_c.o [2]
_gLocale_mblenInt            0x45c9    0x2c  Code  Gb  xlocale_c.o [2]
_gLocale_wctomb              0x4609     0x4  Code  Gb  xlocale_c.o [2]
_gLocale_wctombInt           0x4601     0x4  Code  Gb  xlocale_c.o [2]
_main                        0xadeb          Code  Gb  cmain.o [4]
abort                        0x5163     0x6  Code  Gb  abort.o [2]
counter                 0x1fff'c179     0x1  Data  Gb  User_SPI.o [1]
enIrqRegistration             0x421    0x74  Code  Gb  hc32f46x_interrupts.o [1]
exit                         0xadf3     0x4  Code  Gb  exit.o [2]
f_temperature           0x1fff'c158     0x4  Data  Gb  User_OTS.o [1]
flag_DCU1_INT           0x1fff'c172     0x1  Data  Gb  User_DCU.o [1]
flag_SPI3_RX            0x1fff'c177     0x1  Data  Gb  User_SPI.o [1]
flag_SPI3_TX            0x1fff'c178     0x1  Data  Gb  User_SPI.o [1]
flag_key0               0x1fff'c173     0x1  Data  Gb  User_Gpio.o [1]
flag_key1               0x1fff'c174     0x1  Data  Gb  User_Gpio.o [1]
fputc                        0x905d    0x10  Code  Gb  hc32f46x_utility.o [1]
key0_int_callback            0xa3ad     0x8  Code  Gb  User_Gpio.o [1]
key1_int_callback            0xa3b5     0x8  Code  Gb  User_Gpio.o [1]
ldexp                        0x4c59          Code  Gb  ldexp.o [3]
ldexpl                       0x4c59          Code  Gb  ldexp.o [3]
localeconv                   0x460d     0x4  Code  Gb  xlocale_c.o [2]
loop                         0xaa1d     0x8  Code  Gb  User_Task.o [1]
m_f32OtsOffsetM         0x1fff'c104     0x4  Data  Lc  hc32f46x_ots.o [1]
m_f32OtsSlopeK          0x1fff'c100     0x4  Data  Lc  hc32f46x_ots.o [1]
m_u8OtsClkSel           0x1fff'c170     0x1  Data  Lc  hc32f46x_ots.o [1]
main                         0xacef    0x2a  Code  Gb  main.o [1]
memchr                       0x46a9          Code  Gb  memchr.o [4]
memcmp                       0x9ee9          Code  Gb  memcmp.o [4]
obuf                    0x1fff'bfa8    0x50  Data  Lc  xfiles.o [2]
osSystickHandler             0x2949    0x10  Code  Gb  cmsis_os.o [1]
pfnNmiCallback          0x1fff'c0fc     0x4  Data  Lc  hc32f46x_exint_nmi_swi.o [1]
printf                       0x9f51    0x28  Code  Gb  printf.o [2]
prvAddCurrentTaskToDelayedList
                             0x2fb5    0x6e  Code  Lc  tasks.o [1]
prvAddNewTaskToReadyList
                             0x2aad    0x9a  Code  Lc  tasks.o [1]
prvCheckTasksWaitingTermination
                             0x2ed5    0x50  Code  Lc  tasks.o [1]
prvDeleteTCB                 0x2f29    0x12  Code  Lc  tasks.o [1]
prvHeapInit                  0x33e7    0x5e  Code  Lc  heap_4.o [1]
prvIdleTask                  0x2e4d    0x22  Code  Lc  tasks.o [1]
prvInitialiseNewTask         0x2a03    0xaa  Code  Lc  tasks.o [1]
prvInitialiseTaskLists       0x2e85    0x50  Code  Lc  tasks.o [1]
prvInsertBlockIntoFreeList
                             0x3445    0x5e  Code  Lc  heap_4.o [1]
prvResetNextTaskUnblockTime
                             0x2f3b    0x28  Code  Lc  tasks.o [1]
prvTaskExitError             0x3085    0x2a  Code  Lc  port.o [1]
putchar                      0xae35     0xc  Code  Gb  putchar.o [2]
pvPortMalloc                 0x3261   0x114  Code  Gb  heap_4.o [1]
pxCurrentTCB            0x1fff'c11c     0x4  Data  Gb  tasks.o [1]
pxDelayedTaskList       0x1fff'c120     0x4  Data  Lc  tasks.o [1]
pxEnd                   0x1fff'c108     0x4  Data  Lc  heap_4.o [1]
pxOverflowDelayedTaskList
                        0x1fff'c124     0x4  Data  Lc  tasks.o [1]
pxPortInitialiseStack        0x305d    0x28  Code  Gb  port.o [1]
pxReadyTasksLists       0x1fff'bf1c    0x8c  Data  Lc  tasks.o [1]
rec_len                 0x1fff'c164     0x4  Data  Gb  User_Uart.o [1]
scalbln                      0x4c59          Code  Gb  ldexp.o [3]
scalblnl                     0x4c59          Code  Gb  ldexp.o [3]
scalbn                       0x4c59          Code  Gb  ldexp.o [3]
scalbnl                      0x4c59          Code  Gb  ldexp.o [3]
scale                        0x3deb    0x46  Code  Lc  xprintffull.o [2]
sec_hand                0x1fff'c168     0x4  Data  Lc  xfail_s.o [2]
strchr                       0x4619          Code  Gb  strchr.o [4]
strlen                       0x4671          Code  Gb  strlen.o [4]
system_clk_init              0xa581   0x170  Code  Gb  System_Clk.o [1]
u32ICG                        0x400    0x20  Data  Gb  hc32f46x_icg.o [1]
u8FreqDiv               0x1fff'810c     0x8  Data  Lc  hc32f46x_i2c.o [1]
ucHeap                  0x1fff'811c  0x3c00  Data  Lc  heap_4.o [1]
ucMaxSysCallPriority    0x1fff'c171     0x1  Data  Lc  port.o [1]
ulMaxPRIGROUPValue      0x1fff'c118     0x4  Data  Lc  port.o [1]
uxCriticalNesting       0x1fff'8114     0x4  Data  Lc  port.o [1]
uxCurrentNumberOfTasks  0x1fff'c12c     0x4  Data  Lc  tasks.o [1]
uxDeletedTasksWaitingCleanUp
                        0x1fff'c128     0x4  Data  Lc  tasks.o [1]
uxListRemove                 0x3533    0x26  Code  Gb  list.o [1]
uxPendedTicks           0x1fff'c13c     0x4  Data  Lc  tasks.o [1]
uxSchedulerSuspended    0x1fff'c154     0x4  Data  Lc  tasks.o [1]
uxTaskNumber            0x1fff'c148     0x4  Data  Lc  tasks.o [1]
uxTopReadyPriority      0x1fff'c134     0x4  Data  Lc  tasks.o [1]
vListInitialise              0x34c1    0x1e  Code  Gb  list.o [1]
vListInitialiseItem          0x34df     0x6  Code  Gb  list.o [1]
vListInsert                  0x34fd    0x36  Code  Gb  list.o [1]
vListInsertEnd               0x34e5    0x18  Code  Gb  list.o [1]
vPortEnableVFP               0x35ed          Code  Gb  portasm.o [1]
vPortEnterCritical           0x317d    0x34  Code  Gb  port.o [1]
vPortExitCritical            0x31b1    0x2c  Code  Gb  port.o [1]
vPortFree                    0x3375    0x72  Code  Gb  heap_4.o [1]
vPortStartFirstTask          0x35cd          Code  Gb  portasm.o [1]
vTaskDelay                   0x2b47    0x4c  Code  Gb  tasks.o [1]
vTaskStartScheduler          0x2b93    0x64  Code  Gb  tasks.o [1]
vTaskSuspendAll              0x2bf7     0xc  Code  Gb  tasks.o [1]
vTaskSwitchContext           0x2ddf    0x6c  Code  Gb  tasks.o [1]
xBlockAllocatedBit      0x1fff'c114     0x4  Data  Lc  heap_4.o [1]
xDelayedTaskList1       0x1fff'c090    0x14  Data  Lc  tasks.o [1]
xDelayedTaskList2       0x1fff'c0a4    0x14  Data  Lc  tasks.o [1]
xFreeBytesRemaining     0x1fff'c10c     0x4  Data  Lc  heap_4.o [1]
xHeapStructSize              0xaef0     0x4  Data  Lc  heap_4.o [1]
xIdleTaskHandle         0x1fff'c150     0x4  Data  Lc  tasks.o [1]
xMinimumEverFreeBytesRemaining
                        0x1fff'c110     0x4  Data  Lc  heap_4.o [1]
xNextTaskUnblockTime    0x1fff'c14c     0x4  Data  Lc  tasks.o [1]
xNumOfOverflows         0x1fff'c144     0x4  Data  Lc  tasks.o [1]
xPendingReadyList       0x1fff'c0b8    0x14  Data  Lc  tasks.o [1]
xPortStartScheduler          0x30af    0xce  Code  Gb  port.o [1]
xPortSysTickHandler          0x31dd    0x28  Code  Gb  port.o [1]
xSchedulerRunning       0x1fff'c138     0x4  Data  Lc  tasks.o [1]
xStart                  0x1fff'c0f4     0x8  Data  Lc  heap_4.o [1]
xSuspendedTaskList      0x1fff'c0e0    0x14  Data  Lc  tasks.o [1]
xTaskCreate                  0x2995    0x6e  Code  Gb  tasks.o [1]
xTaskGetSchedulerState       0x2f6d    0x20  Code  Gb  tasks.o [1]
xTaskIncrementTick           0x2ce7    0xf8  Code  Gb  tasks.o [1]
xTaskResumeAll               0x2c03    0xe4  Code  Gb  tasks.o [1]
xTasksWaitingTermination
                        0x1fff'c0cc    0x14  Data  Lc  tasks.o [1]
xTickCount              0x1fff'c130     0x4  Data  Lc  tasks.o [1]
xYieldPending           0x1fff'c140     0x4  Data  Lc  tasks.o [1]


[1] = C:\03-githubFiles\HC32F460_FreeRTOS\HC32F460Temp_FreeRTOS\Debug\Obj
[2] = dl7M_tlf.a
[3] = m7M_tls.a
[4] = rt7M_tl.a
[5] = shb_l.a

  42 652 bytes of readonly  code memory
   2 016 bytes of readonly  data memory (+ 32 absolute)
  17 786 bytes of readwrite data memory

Errors: none
Warnings: none
